target datalayout = "e-m:e-p270:32:32-p271:32:32-p272:64:64-i64:64-i128:128-f80:128-n8:16:32:64-S128"
target triple = "x86_64-pc-linux-gnu"

%"class.Json::Value" = type { %"union.Json::Value::ValueHolder", %struct.anon, %"class.Json::Value::Comments", i64, i64 }
%"union.Json::Value::ValueHolder" = type { i64 }
%struct.anon = type { i16, [2 x i8] }
%"class.Json::Value::Comments" = type { %"class.std::unique_ptr.167" }
%"class.std::unique_ptr.167" = type { %"struct.std::__uniq_ptr_data.168" }
%"struct.std::__uniq_ptr_data.168" = type { %"class.std::__uniq_ptr_impl.169" }
%"class.std::__uniq_ptr_impl.169" = type { %"class.std::tuple.170" }
%"class.std::tuple.170" = type { %"struct.std::_Tuple_impl.171" }
%"struct.std::_Tuple_impl.171" = type { %"struct.std::_Head_base.174" }
%"struct.std::_Head_base.174" = type { ptr }
%"struct.cmFileAPI::Object" = type { i32, i64 }

@.str.35 = private unnamed_addr constant [8 x i8] c"version\00", align 1
@.str.43 = private unnamed_addr constant [5 x i8] c"kind\00", align 1
@_ZZN9cmFileAPI14ObjectKindNameENS_10ObjectKindEE15objectKindNames = internal global [6 x ptr] [ptr @.str.44, ptr @.str.45, ptr @.str.46, ptr @.str.47, ptr @.str.48, ptr @.str.49], align 16

; Function Attrs: mustprogress nounwind uwtable
define dso_local noundef ptr @_ZN9cmFileAPI14ObjectKindNameENS_10ObjectKindE(i32 noundef %0) #6 align 2 {
  %2 = alloca i32, align 4
  store i32 %0, ptr %2, align 4, !tbaa !231
  %3 = load i32, ptr %2, align 4, !tbaa !231
  %4 = sext i32 %3 to i64
  %5 = getelementptr inbounds nuw [6 x ptr], ptr @_ZZN9cmFileAPI14ObjectKindNameENS_10ObjectKindEE15objectKindNames, i64 0, i64 %4
  %6 = load ptr, ptr %5, align 8, !tbaa !88
  ret ptr %6
}

; Function Attrs: mustprogress uwtable
define dso_local void @_ZN9cmFileAPI15BuildCMakeFilesERKNS_6ObjectE(ptr dead_on_unwind noalias writable sret(%"class.Json::Value") align 8 %0, ptr noundef nonnull align 8 dereferenceable(296) %1, ptr noundef nonnull align 8 dereferenceable(16) %2) #5 align 2 personality ptr @__gxx_personality_v0 {
  %4 = alloca ptr, align 8
  %5 = alloca ptr, align 8
  %6 = alloca ptr, align 8
  %7 = alloca i1, align 1
  %8 = alloca %"class.Json::Value", align 8
  %9 = alloca ptr, align 8
  %10 = alloca i32, align 4
  %11 = alloca ptr, align 8
  %12 = alloca %"class.Json::Value", align 8
  %13 = alloca i32, align 4
  store ptr %0, ptr %4, align 8
  store ptr %1, ptr %5, align 8, !tbaa !20
  store ptr %2, ptr %6, align 8, !tbaa !154
  %14 = load ptr, ptr %5, align 8
  store i1 false, ptr %7, align 1
  %15 = load ptr, ptr %6, align 8, !tbaa !154
  %16 = getelementptr inbounds nuw %"struct.cmFileAPI::Object", ptr %15, i32 0, i32 1
  %17 = load i64, ptr %16, align 8, !tbaa !149
  call void @_Z23cmFileAPICMakeFilesDumpR9cmFileAPIm(ptr dead_on_unwind writable sret(%"class.Json::Value") align 8 %0, ptr noundef nonnull align 8 dereferenceable(296) %14, i64 noundef %17)
  call void @llvm.lifetime.start.p0(i64 40, ptr %8) #3
  %18 = load ptr, ptr %6, align 8, !tbaa !154
  %19 = getelementptr inbounds nuw %"struct.cmFileAPI::Object", ptr %18, i32 0, i32 0
  %20 = load i32, ptr %19, align 8, !tbaa !146
  %21 = call noundef ptr @_ZN9cmFileAPI14ObjectKindNameENS_10ObjectKindE(i32 noundef %20)
  invoke void @_ZN4Json5ValueC1EPKc(ptr noundef nonnull align 8 dereferenceable(40) %8, ptr noundef %21)
          to label %22 unwind label %36

22:                                               ; preds = %3
  %23 = invoke noundef nonnull align 8 dereferenceable(40) ptr @_ZN4Json5ValueixEPKc(ptr noundef nonnull align 8 dereferenceable(40) %0, ptr noundef @.str.43)
          to label %24 unwind label %40

24:                                               ; preds = %22
  %25 = call noundef nonnull align 8 dereferenceable(40) ptr @_ZN4Json5ValueaSEOS0_(ptr noundef nonnull align 8 dereferenceable(40) %23, ptr noundef nonnull align 8 dereferenceable(40) %8) #3
  call void @_ZN4Json5ValueD1Ev(ptr noundef nonnull align 8 dereferenceable(40) %8) #3
  call void @llvm.lifetime.end.p0(i64 40, ptr %8) #3
  call void @llvm.lifetime.start.p0(i64 8, ptr %11) #3
  %26 = invoke noundef nonnull align 8 dereferenceable(40) ptr @_ZN4Json5ValueixEPKc(ptr noundef nonnull align 8 dereferenceable(40) %0, ptr noundef @.str.35)
          to label %27 unwind label %45

27:                                               ; preds = %24
  store ptr %26, ptr %11, align 8, !tbaa !173
  %28 = load ptr, ptr %6, align 8, !tbaa !154
  %29 = getelementptr inbounds nuw %"struct.cmFileAPI::Object", ptr %28, i32 0, i32 1
  %30 = load i64, ptr %29, align 8, !tbaa !149
  %31 = icmp eq i64 %30, 1
  br i1 %31, label %32, label %53

32:                                               ; preds = %27
  call void @llvm.lifetime.start.p0(i64 40, ptr %12) #3
  invoke void @_ZN9cmFileAPI12BuildVersionEjj(ptr dead_on_unwind writable sret(%"class.Json::Value") align 8 %12, i32 noundef 1, i32 noundef 1)
          to label %33 unwind label %49

33:                                               ; preds = %32
  %34 = load ptr, ptr %11, align 8, !tbaa !173
  %35 = call noundef nonnull align 8 dereferenceable(40) ptr @_ZN4Json5ValueaSEOS0_(ptr noundef nonnull align 8 dereferenceable(40) %34, ptr noundef nonnull align 8 dereferenceable(40) %12) #3
  call void @_ZN4Json5ValueD1Ev(ptr noundef nonnull align 8 dereferenceable(40) %12) #3
  call void @llvm.lifetime.end.p0(i64 40, ptr %12) #3
  br label %54

36:                                               ; preds = %3
  %37 = landingpad { ptr, i32 }
          cleanup
  %38 = extractvalue { ptr, i32 } %37, 0
  store ptr %38, ptr %9, align 8
  %39 = extractvalue { ptr, i32 } %37, 1
  store i32 %39, ptr %10, align 4
  br label %44

40:                                               ; preds = %22
  %41 = landingpad { ptr, i32 }
          cleanup
  %42 = extractvalue { ptr, i32 } %41, 0
  store ptr %42, ptr %9, align 8
  %43 = extractvalue { ptr, i32 } %41, 1
  store i32 %43, ptr %10, align 4
  call void @_ZN4Json5ValueD1Ev(ptr noundef nonnull align 8 dereferenceable(40) %8) #3
  br label %44

44:                                               ; preds = %40, %36
  call void @llvm.lifetime.end.p0(i64 40, ptr %8) #3
  br label %60

45:                                               ; preds = %24
  %46 = landingpad { ptr, i32 }
          cleanup
  %47 = extractvalue { ptr, i32 } %46, 0
  store ptr %47, ptr %9, align 8
  %48 = extractvalue { ptr, i32 } %46, 1
  store i32 %48, ptr %10, align 4
  br label %57

49:                                               ; preds = %32
  %50 = landingpad { ptr, i32 }
          cleanup
  %51 = extractvalue { ptr, i32 } %50, 0
  store ptr %51, ptr %9, align 8
  %52 = extractvalue { ptr, i32 } %50, 1
  store i32 %52, ptr %10, align 4
  call void @llvm.lifetime.end.p0(i64 40, ptr %12) #3
  br label %57

53:                                               ; preds = %27
  store i1 true, ptr %7, align 1
  store i32 1, ptr %13, align 4
  br label %55

54:                                               ; preds = %33
  store i1 true, ptr %7, align 1
  store i32 1, ptr %13, align 4
  br label %55

55:                                               ; preds = %54, %53
  call void @llvm.lifetime.end.p0(i64 8, ptr %11) #3
  %56 = load i1, ptr %7, align 1
  br i1 %56, label %59, label %58

57:                                               ; preds = %49, %45
  call void @llvm.lifetime.end.p0(i64 8, ptr %11) #3
  br label %60

58:                                               ; preds = %55
  call void @_ZN4Json5ValueD1Ev(ptr noundef nonnull align 8 dereferenceable(40) %0) #3
  br label %59

59:                                               ; preds = %58, %55
  ret void

60:                                               ; preds = %57, %44
  call void @_ZN4Json5ValueD1Ev(ptr noundef nonnull align 8 dereferenceable(40) %0) #3
  br label %61

61:                                               ; preds = %60
  %62 = load ptr, ptr %9, align 8
  %63 = load i32, ptr %10, align 4
  %64 = insertvalue { ptr, i32 } poison, ptr %62, 0
  %65 = insertvalue { ptr, i32 } %64, i32 %63, 1
  resume { ptr, i32 } %65
}